(dp0
Vengine
p1
Vxelatex
p2
sVpackages
p3
c__builtin__
set
p4
((lp5
Vhyperref
p6
aVifluatex
p7
aVfontenc
p8
aVfancyhdr
p9
aVgeometry
p10
aVbabel
p11
aVfontspec
p12
aVxltxtra
p13
aVfancyvrb
p14
aVamsmath
p15
aVamssymb
p16
aVxunicode
p17
aVmicrotype
p18
aVlmodern
p19
aVfixltx2e
p20
aVframed
p21
aVifxetex
p22
aVcolor
p23
aVparskip
p24
atp25
Rp26
sVfiles_with_guttermarks
p27
g4
((lp28
V/Users/zemirco/dev/js/nodejs-pdf-docs/pdf/sections_tex/net.tex
p29
aV/Users/zemirco/dev/js/nodejs-pdf-docs/pdf/sections_tex/tracing.tex
p30
aV/Users/zemirco/dev/js/nodejs-pdf-docs/pdf/sections_tex/fs.tex
p31
aV/Users/zemirco/dev/js/nodejs-pdf-docs/pdf/sections_tex/dns.tex
p32
aV/Users/zemirco/dev/js/nodejs-pdf-docs/pdf/sections_tex/crypto.tex
p33
aS'all.tex'
p34
aV/Users/zemirco/dev/js/nodejs-pdf-docs/pdf/sections_tex/globals.tex
p35
aV/Users/zemirco/dev/js/nodejs-pdf-docs/pdf/sections_tex/buffer.tex
p36
aV/Users/zemirco/dev/js/nodejs-pdf-docs/pdf/sections_tex/stream.tex
p37
aV/Users/zemirco/dev/js/nodejs-pdf-docs/pdf/sections_tex/zlib.tex
p38
aV/Users/zemirco/dev/js/nodejs-pdf-docs/pdf/sections_tex/dgram.tex
p39
aV/Users/zemirco/dev/js/nodejs-pdf-docs/pdf/sections_tex/child_process.tex
p40
aV/Users/zemirco/dev/js/nodejs-pdf-docs/pdf/sections_tex/https.tex
p41
aV/Users/zemirco/dev/js/nodejs-pdf-docs/pdf/sections_tex/tls.tex
p42
aV/Users/zemirco/dev/js/nodejs-pdf-docs/pdf/sections_tex/process.tex
p43
atp44
Rp45
sVsynctex
p46
I01
s.